(i__main__
LogFile
p0
(dp1
S'_installed_files'
p2
(dp3
S'../../../Examples/FirstAlg/amd64_linux26/libFirstAlg.so'
p4
S'../../../InstallArea/amd64_linux26/lib/libFirstAlg.so'
p5
sS'../Examples/FirstAlg/python'
p6
(dp7
S'../../../Examples/FirstAlg/python/amd64_linux26/make.in'
p8
S'../../../InstallArea/python/amd64_linux26/make.in'
p9
sS'../../../Examples/FirstAlg/python/amd64_linux26/setup.make'
p10
S'../../../InstallArea/python/amd64_linux26/setup.make'
p11
sS'../../../Examples/FirstAlg/python/amd64_linux26/library_links.in'
p12
S'../../../InstallArea/python/amd64_linux26/library_links.in'
p13
sS'../../../Examples/FirstAlg/python/amd64_linux26/constituents.make'
p14
S'../../../InstallArea/python/amd64_linux26/constituents.make'
p15
sS'../../../Examples/FirstAlg/python/amd64_linux26/amd64_linux26.make'
p16
S'../../../InstallArea/python/amd64_linux26/amd64_linux26.make'
p17
sS'../../../Examples/FirstAlg/python/FirstAlg/__init__.py'
p18
S'../../../InstallArea/python/FirstAlg/__init__.py'
p19
sssb.